target datalayout = "e-m:e-p270:32:32-p271:32:32-p272:64:64-i64:64-i128:128-f80:128-n8:16:32:64-S128"
target triple = "x86_64-pc-linux-gnu"

@set_to_default = internal global ptr @set_separate, align 8

; Function Attrs: nounwind uwtable
define dso_local i32 @diff_merges_config(ptr noundef %0) #0 {
  %2 = alloca i32, align 4
  %3 = alloca ptr, align 8
  %4 = alloca ptr, align 8
  %5 = alloca i32, align 4
  store ptr %0, ptr %3, align 8, !tbaa !4
  call void @llvm.lifetime.start.p0(i64 8, ptr %4) #7
  %6 = load ptr, ptr %3, align 8, !tbaa !4
  %7 = call ptr @func_by_opt(ptr noundef %6)
  store ptr %7, ptr %4, align 8, !tbaa !9
  %8 = load ptr, ptr %4, align 8, !tbaa !9
  %9 = icmp ne ptr %8, null
  br i1 %9, label %11, label %10

10:                                               ; preds = %1
  store i32 -1, ptr %2, align 4
  store i32 1, ptr %5, align 4
  br label %13

11:                                               ; preds = %1
  %12 = load ptr, ptr %4, align 8, !tbaa !9
  store ptr %12, ptr @set_to_default, align 8, !tbaa !9
  store i32 0, ptr %2, align 4
  store i32 1, ptr %5, align 4
  br label %13

13:                                               ; preds = %11, %10
  call void @llvm.lifetime.end.p0(i64 8, ptr %4) #7
  %14 = load i32, ptr %2, align 4
  ret i32 %14
}