; Function Attrs: mustprogress nofree nounwind willreturn memory(readwrite, argmem: read, inaccessiblemem: none) uwtable
define dso_local range(i32 -1, 1) i32 @diff_merges_config(ptr noundef readonly captures(none) %0) local_unnamed_addr #0 {
  %2 = tail call fastcc ptr @func_by_opt(ptr noundef %0)
  %.not = icmp eq ptr %2, null
  br i1 %.not, label %4, label %3

3:                                                ; preds = %1
  store ptr %2, ptr @set_to_default, align 8, !tbaa !4
  br label %4

4:                                                ; preds = %1, %3
  %.0 = phi i32 [ 0, %3 ], [ -1, %1 ]
  ret i32 %.0
}